; Function Attrs: nofree norecurse nosync nounwind memory(write, argmem: readwrite, inaccessiblemem: none) uwtable
define internal fastcc i64 @HUF_compressCTable_internal(ptr noundef %0, ptr noundef %1, ptr noundef %2, ptr noundef %3, i64 noundef range(i64 1, 131073) %4, i32 noundef range(i32 0, 2) %5, ptr noundef readonly captures(none) %6) unnamed_addr #8 {
  %8 = icmp eq i32 %5, 0
  %9 = ptrtoint ptr %2 to i64
  %10 = ptrtoint ptr %1 to i64
  %11 = sub i64 %9, %10
  br i1 %8, label %12, label %14

12:                                               ; preds = %7
  %13 = tail call fastcc i64 @HUF_compress1X_usingCTable_internal(ptr noundef %1, i64 noundef %11, ptr noundef %3, i64 noundef %4, ptr noundef %6)
  br label %16

14:                                               ; preds = %7
  %15 = tail call fastcc i64 @HUF_compress4X_usingCTable_internal(ptr noundef %1, i64 noundef %11, ptr noundef %3, i64 noundef %4, ptr noundef %6)
  br label %16

16:                                               ; preds = %14, %12
  %17 = phi i64 [ %13, %12 ], [ %15, %14 ]
  %18 = icmp ult i64 %17, -119
  br i1 %18, label %19, label %27

19:                                               ; preds = %16
  %20 = icmp eq i64 %17, 0
  br i1 %20, label %27, label %21

21:                                               ; preds = %19
  %22 = getelementptr inbounds nuw i8, ptr %1, i64 %17
  %23 = ptrtoint ptr %22 to i64
  %24 = ptrtoint ptr %0 to i64
  %25 = sub i64 %23, %24
  %26 = add nsw i64 %4, -1
  %.not27 = icmp ult i64 %25, %26
  %. = select i1 %.not27, i64 %25, i64 0
  br label %27

27:                                               ; preds = %21, %19, %16
  %.0 = phi i64 [ %17, %16 ], [ 0, %19 ], [ %., %21 ]
  ret i64 %.0
}